target datalayout = "e-m:e-p270:32:32-p271:32:32-p272:64:64-i64:64-i128:128-f80:128-n8:16:32:64-S128"
target triple = "x86_64-pc-linux-gnu"

%struct.LOCK = type { %struct.LOCKTAG, i32, i32, %struct.dlist_head, %struct.dclist_head, [10 x i32], i32, [10 x i32], i32 }
%struct.LOCKTAG = type { i32, i32, i32, i16, i8, i8 }
%struct.dlist_head = type { %struct.dlist_node }
%struct.dlist_node = type { ptr, ptr }
%struct.dclist_head = type { %struct.dlist_head, i32 }
%union.LWLockPadded = type { %struct.LWLock, [112 x i8] }
%struct.LWLock = type { i16, %struct.pg_atomic_uint32, %struct.proclist_head }
%struct.pg_atomic_uint32 = type { i32 }
%struct.proclist_head = type { i32, i32 }

@LockMethodLockHash = internal global ptr null, align 8
@.str.4 = private unnamed_addr constant [29 x i8] c"unrecognized lock method: %d\00", align 1
@.str.5 = private unnamed_addr constant [7 x i8] c"lock.c\00", align 1
@MainLWLockArray = external global ptr, align 8
@__func__.LockWaiterCount = private unnamed_addr constant [16 x i8] c"LockWaiterCount\00", align 1

; Function Attrs: nounwind uwtable
define dso_local i32 @LockTagHashCode(ptr noundef %0) #0 {
  %2 = alloca ptr, align 8
  store ptr %0, ptr %2, align 8
  %3 = load ptr, ptr @LockMethodLockHash, align 8
  %4 = load ptr, ptr %2, align 8
  %5 = call i32 @get_hash_value(ptr noundef %3, ptr noundef %4)
  ret i32 %5
}

; Function Attrs: nounwind uwtable
define dso_local i32 @LockWaiterCount(ptr noundef %0) #0 {
  %2 = alloca ptr, align 8
  %3 = alloca i16, align 2
  %4 = alloca ptr, align 8
  %5 = alloca i8, align 1
  %6 = alloca i32, align 4
  %7 = alloca ptr, align 8
  %8 = alloca i32, align 4
  store ptr %0, ptr %2, align 8
  call void @llvm.lifetime.start.p0(i64 2, ptr %3) #9
  %9 = load ptr, ptr %2, align 8
  %10 = getelementptr inbounds nuw %struct.LOCKTAG, ptr %9, i32 0, i32 5
  %11 = load i8, ptr %10, align 1
  %12 = zext i8 %11 to i16
  store i16 %12, ptr %3, align 2
  call void @llvm.lifetime.start.p0(i64 8, ptr %4) #9
  call void @llvm.lifetime.start.p0(i64 1, ptr %5) #9
  call void @llvm.lifetime.start.p0(i64 4, ptr %6) #9
  call void @llvm.lifetime.start.p0(i64 8, ptr %7) #9
  call void @llvm.lifetime.start.p0(i64 4, ptr %8) #9
  store i32 0, ptr %8, align 4
  %13 = load i16, ptr %3, align 2
  %14 = zext i16 %13 to i32
  %15 = icmp sle i32 %14, 0
  br i1 %15, label %20, label %16

16:                                               ; preds = %1
  %17 = load i16, ptr %3, align 2
  %18 = zext i16 %17 to i64
  %19 = icmp uge i64 %18, 3
  br i1 %19, label %20, label %33

20:                                               ; preds = %16, %1
  br label %21

21:                                               ; preds = %20
  br i1 true, label %22, label %24

22:                                               ; preds = %21
  %23 = call zeroext i1 @errstart_cold(i32 noundef 21, ptr noundef null) #10
  br i1 %23, label %26, label %30

24:                                               ; preds = %21
  %25 = call zeroext i1 @errstart(i32 noundef 21, ptr noundef null)
  br i1 %25, label %26, label %30

26:                                               ; preds = %24, %22
  %27 = load i16, ptr %3, align 2
  %28 = zext i16 %27 to i32
  %29 = call i32 (ptr, ...) @errmsg_internal(ptr noundef @.str.4, i32 noundef %28)
  call void @errfinish(ptr noundef @.str.5, i32 noundef 4771, ptr noundef @__func__.LockWaiterCount)
  br label %30

30:                                               ; preds = %26, %24, %22
  unreachable

31:                                               ; No predecessors!
  br label %32

32:                                               ; preds = %31
  br label %33

33:                                               ; preds = %32, %16
  %34 = load ptr, ptr %2, align 8
  %35 = call i32 @LockTagHashCode(ptr noundef %34)
  store i32 %35, ptr %6, align 4
  %36 = load ptr, ptr @MainLWLockArray, align 8
  %37 = load i32, ptr %6, align 4
  %38 = urem i32 %37, 16
  %39 = add i32 181, %38
  %40 = zext i32 %39 to i64
  %41 = getelementptr inbounds nuw %union.LWLockPadded, ptr %36, i64 %40
  store ptr %41, ptr %7, align 8
  %42 = load ptr, ptr %7, align 8
  %43 = call zeroext i1 @LWLockAcquire(ptr noundef %42, i32 noundef 0)
  %44 = load ptr, ptr @LockMethodLockHash, align 8
  %45 = load ptr, ptr %2, align 8
  %46 = load i32, ptr %6, align 4
  %47 = call ptr @hash_search_with_hash_value(ptr noundef %44, ptr noundef %45, i32 noundef %46, i32 noundef 0, ptr noundef %5)
  store ptr %47, ptr %4, align 8
  %48 = load i8, ptr %5, align 1, !range !4, !noundef !5
  %49 = trunc i8 %48 to i1
  br i1 %49, label %50, label %54

50:                                               ; preds = %33
  %51 = load ptr, ptr %4, align 8
  %52 = getelementptr inbounds nuw %struct.LOCK, ptr %51, i32 0, i32 6
  %53 = load i32, ptr %52, align 8
  store i32 %53, ptr %8, align 4
  br label %54

54:                                               ; preds = %50, %33
  %55 = load ptr, ptr %7, align 8
  call void @LWLockRelease(ptr noundef %55)
  %56 = load i32, ptr %8, align 4
  call void @llvm.lifetime.end.p0(i64 4, ptr %8) #9
  call void @llvm.lifetime.end.p0(i64 8, ptr %7) #9
  call void @llvm.lifetime.end.p0(i64 4, ptr %6) #9
  call void @llvm.lifetime.end.p0(i64 1, ptr %5) #9
  call void @llvm.lifetime.end.p0(i64 8, ptr %4) #9
  call void @llvm.lifetime.end.p0(i64 2, ptr %3) #9
  ret i32 %56
}