; Function Attrs: nounwind uwtable
define dso_local i32 @LockWaiterCount(ptr noundef %0) local_unnamed_addr #0 {
  %2 = alloca i8, align 1
  %3 = getelementptr inbounds nuw i8, ptr %0, i64 15
  %4 = load i8, ptr %3, align 1
  call void @llvm.lifetime.start.p0(i64 1, ptr nonnull %2) #17
  %5 = add i8 %4, -3
  %or.cond = icmp ult i8 %5, -2
  br i1 %or.cond, label %6, label %10

6:                                                ; preds = %1
  %7 = zext i8 %4 to i32
  %8 = tail call zeroext i1 @errstart_cold(i32 noundef 21, ptr noundef null) #18
  tail call void @llvm.assume(i1 %8)
  %9 = tail call i32 (ptr, ...) @errmsg_internal(ptr noundef nonnull @.str.4, i32 noundef %7) #17
  tail call void @errfinish(ptr noundef nonnull @.str.5, i32 noundef 4771, ptr noundef nonnull @__func__.LockWaiterCount) #17
  unreachable

10:                                               ; preds = %1
  %11 = load ptr, ptr @LockMethodLockHash, align 8
  %12 = tail call i32 @get_hash_value(ptr noundef %11, ptr noundef nonnull %0) #17
  %13 = load ptr, ptr @MainLWLockArray, align 8
  %14 = and i32 %12, 15
  %15 = zext nneg i32 %14 to i64
  %16 = getelementptr inbounds nuw %union.LWLockPadded, ptr %13, i64 %15
  %17 = getelementptr inbounds nuw i8, ptr %16, i64 23168
  %18 = tail call zeroext i1 @LWLockAcquire(ptr noundef nonnull %17, i32 noundef 0) #17
  %19 = load ptr, ptr @LockMethodLockHash, align 8
  %20 = call ptr @hash_search_with_hash_value(ptr noundef %19, ptr noundef nonnull %0, i32 noundef %12, i32 noundef 0, ptr noundef nonnull %2) #17
  %21 = load i8, ptr %2, align 1, !range !4, !noundef !5
  %22 = trunc nuw i8 %21 to i1
  br i1 %22, label %23, label %26

23:                                               ; preds = %10
  %24 = getelementptr inbounds nuw i8, ptr %20, i64 104
  %25 = load i32, ptr %24, align 8
  br label %26

26:                                               ; preds = %23, %10
  %.0 = phi i32 [ %25, %23 ], [ 0, %10 ]
  call void @LWLockRelease(ptr noundef nonnull %17) #17
  call void @llvm.lifetime.end.p0(i64 1, ptr nonnull %2) #17
  ret i32 %.0
}